Certificate:
    Data:
        Version: 3 (0x2)
        Serial Number: 1 (0x1)
    Signature Algorithm: sha256WithRSAEncryption
        Issuer: CN=devcert
        Validity
            Not Before: May  9 16:08:42 2022 GMT
            Not After : Aug 11 16:08:42 2024 GMT
        Subject: CN=localhost
        Subject Public Key Info:
            Public Key Algorithm: rsaEncryption
                Public-Key: (2048 bit)
                Modulus:
                    00:d9:2e:3a:57:92:45:c8:90:a1:20:e0:86:99:8e:
                    ab:a0:8f:93:a8:06:67:a7:ea:86:40:e1:37:56:e1:
                    61:97:a1:6d:96:97:21:d5:4d:4e:56:9a:26:f8:8e:
                    ca:36:de:ac:66:69:0c:98:c3:18:31:3b:a6:00:20:
                    95:ef:7a:7e:b6:ab:15:dc:8e:ad:17:33:0e:5f:a9:
                    ef:d8:06:5e:1f:70:f5:c9:52:6d:a6:96:1c:ae:ad:
                    ca:aa:b9:e9:e7:bb:25:a2:b3:50:f6:02:32:68:62:
                    e6:4e:68:0b:3a:0f:0c:cc:99:e4:cf:17:5c:00:df:
                    db:e3:c0:bd:ef:04:17:4c:a5:c4:51:6a:2a:04:73:
                    d8:c4:fe:d8:5a:21:fe:ab:08:c7:d3:04:19:28:9c:
                    03:b3:ea:c7:88:cc:97:f5:fe:c0:cf:ac:ee:4b:e0:
                    b1:40:9c:fe:6c:52:de:cc:c0:b0:3d:93:bd:8f:00:
                    a1:6d:65:09:45:58:83:57:64:d4:18:b3:4e:17:a0:
                    e6:b1:e9:dc:24:4f:90:ef:bf:43:66:e9:6b:69:1b:
                    b3:0b:26:e1:4c:02:4d:51:06:4d:a9:bd:5e:23:57:
                    f8:99:2d:b1:1b:45:f4:31:fe:15:f8:85:38:bf:53:
                    81:01:19:8e:8b:16:2d:b1:9b:d3:4d:8f:c3:c2:a7:
                    c5:0d
                Exponent: 65537 (0x10001)
        X509v3 extensions:
            X509v3 Basic Constraints: critical
                CA:FALSE
            X509v3 Subject Key Identifier: 
                58:3C:F2:73:5F:FC:20:67:69:E5:A6:1B:24:21:4F:BE:1A:D5:92:87
            X509v3 Authority Key Identifier: 
                keyid:E1:DB:AF:44:DE:80:C7:2D:E1:5E:A6:DB:2D:74:C5:55:7A:33:0F:E9
                DirName:/CN=devcert
                serial:CC:C6:CF:B9:A5:E8:76:9C

            X509v3 Key Usage: critical
                Digital Signature, Key Encipherment
            X509v3 Extended Key Usage: 
                TLS Web Server Authentication
            X509v3 Subject Alternative Name: 
                DNS:localhost, DNS:*.localhost
    Signature Algorithm: sha256WithRSAEncryption
         c3:8c:18:e6:f5:78:d1:5b:f8:82:5d:96:e8:a3:f6:79:89:9c:
         fd:2c:f2:5e:8a:99:fc:7c:80:12:cc:b3:94:f1:11:3e:67:4c:
         d2:c0:42:10:6e:8c:fa:34:78:21:05:47:00:2b:95:7c:4b:0e:
         50:5e:ab:f3:93:55:30:9e:21:b9:f0:dc:dd:e9:f9:a5:7e:93:
         09:70:8e:85:aa:b0:63:f1:7b:34:43:3a:d3:f2:28:fa:7a:6c:
         77:00:b9:85:58:9c:41:f1:37:31:e5:7a:09:26:93:6c:68:ca:
         24:2c:a5:8d:ba:13:ad:65:43:8b:60:42:b1:1a:85:b6:0d:5d:
         ad:cd:28:02:c5:c0:00:53:60:b1:64:00:2c:80:77:21:dd:9b:
         1c:f9:fa:2a:c2:1e:37:19:99:26:d5:ad:9f:f4:72:08:71:ab:
         51:e0:84:38:b3:4e:78:bc:d9:08:f7:27:95:d7:af:36:80:a7:
         dc:44:ce:ac:13:12:ac:e9:ac:5f:34:44:c2:bd:d6:65:b2:e6:
         bb:c8:3d:9e:56:3d:0e:55:3a:a6:9d:ab:4b:b1:c9:61:38:78:
         72:59:c0:a5:6d:88:e1:fb:de:91:3f:cc:7f:0f:56:85:ba:cc:
         ad:27:0d:45:23:63:89:ab:68:06:02:75:ee:9c:8c:8f:9b:3f:
         96:f2:a8:0c
-----BEGIN CERTIFICATE-----
MIIDXjCCAkagAwIBAgIBATANBgkqhkiG9w0BAQsFADASMRAwDgYDVQQDDAdkZXZj
ZXJ0MB4XDTIyMDUwOTE2MDg0MloXDTI0MDgxMTE2MDg0MlowFDESMBAGA1UEAwwJ
bG9jYWxob3N0MIIBIjANBgkqhkiG9w0BAQEFAAOCAQ8AMIIBCgKCAQEA2S46V5JF
yJChIOCGmY6roI+TqAZnp+qGQOE3VuFhl6Ftlpch1U1OVpom+I7KNt6sZmkMmMMY
MTumACCV73p+tqsV3I6tFzMOX6nv2AZeH3D1yVJtppYcrq3Kqrnp57slorNQ9gIy
aGLmTmgLOg8MzJnkzxdcAN/b48C97wQXTKXEUWoqBHPYxP7YWiH+qwjH0wQZKJwD
s+rHiMyX9f7Az6zuS+CxQJz+bFLezMCwPZO9jwChbWUJRViDV2TUGLNOF6Dmsenc
JE+Q779DZulraRuzCybhTAJNUQZNqb1eI1f4mS2xG0X0Mf4V+IU4v1OBARmOixYt
sZvTTY/DwqfFDQIDAQABo4G8MIG5MAwGA1UdEwEB/wQCMAAwHQYDVR0OBBYEFFg8
8nNf/CBnaeWmGyQhT74a1ZKHMEIGA1UdIwQ7MDmAFOHbr0TegMct4V6m2y10xVV6
Mw/poRakFDASMRAwDgYDVQQDDAdkZXZjZXJ0ggkAzMbPuaXodpwwDgYDVR0PAQH/
BAQDAgWgMBMGA1UdJQQMMAoGCCsGAQUFBwMBMCEGA1UdEQQaMBiCCWxvY2FsaG9z
dIILKi5sb2NhbGhvc3QwDQYJKoZIhvcNAQELBQADggEBAMOMGOb1eNFb+IJdluij
9nmJnP0s8l6Kmfx8gBLMs5TxET5nTNLAQhBujPo0eCEFRwArlXxLDlBeq/OTVTCe
Ibnw3N3p+aV+kwlwjoWqsGPxezRDOtPyKPp6bHcAuYVYnEHxNzHlegkmk2xoyiQs
pY26E61lQ4tgQrEahbYNXa3NKALFwABTYLFkACyAdyHdmxz5+irCHjcZmSbVrZ/0
cghxq1HghDizTni82Qj3J5XXrzaAp9xEzqwTEqzprF80RMK91mWy5rvIPZ5WPQ5V
Oqadq0uxyWE4eHJZwKVtiOH73pE/zH8PVoW6zK0nDUUjY4mraAYCde6cjI+bP5by
qAw=
-----END CERTIFICATE-----
